target datalayout = "e-m:e-p270:32:32-p271:32:32-p272:64:64-i64:64-i128:128-f80:128-n8:16:32:64-S128"
target triple = "x86_64-pc-linux-gnu"

; Function Attrs: mustprogress uwtable
define dso_local noundef zeroext i1 @_ZN5ImGui8MenuItemEPKcS1_Pbb(ptr noundef %0, ptr noundef %1, ptr noundef %2, i1 noundef zeroext %3) #8 {
  %5 = alloca i1, align 1
  %6 = alloca ptr, align 8
  %7 = alloca ptr, align 8
  %8 = alloca ptr, align 8
  %9 = alloca i8, align 1
  store ptr %0, ptr %6, align 8, !tbaa !4
  store ptr %1, ptr %7, align 8, !tbaa !4
  store ptr %2, ptr %8, align 8, !tbaa !188
  %10 = zext i1 %3 to i8
  store i8 %10, ptr %9, align 1, !tbaa !67
  %11 = load ptr, ptr %6, align 8, !tbaa !4
  %12 = load ptr, ptr %7, align 8, !tbaa !4
  %13 = load ptr, ptr %8, align 8, !tbaa !188
  %14 = icmp ne ptr %13, null
  br i1 %14, label %15, label %19

15:                                               ; preds = %4
  %16 = load ptr, ptr %8, align 8, !tbaa !188
  %17 = load i8, ptr %16, align 1, !tbaa !67, !range !59, !noundef !60
  %18 = trunc i8 %17 to i1
  br label %20

19:                                               ; preds = %4
  br label %20

20:                                               ; preds = %19, %15
  %21 = phi i1 [ %18, %15 ], [ false, %19 ]
  %22 = load i8, ptr %9, align 1, !tbaa !67, !range !59, !noundef !60
  %23 = trunc i8 %22 to i1
  %24 = call noundef zeroext i1 @_ZN5ImGui10MenuItemExEPKcS1_S1_bb(ptr noundef %11, ptr noundef null, ptr noundef %12, i1 noundef zeroext %21, i1 noundef zeroext %23)
  br i1 %24, label %25, label %36

25:                                               ; preds = %20
  %26 = load ptr, ptr %8, align 8, !tbaa !188
  %27 = icmp ne ptr %26, null
  br i1 %27, label %28, label %35

28:                                               ; preds = %25
  %29 = load ptr, ptr %8, align 8, !tbaa !188
  %30 = load i8, ptr %29, align 1, !tbaa !67, !range !59, !noundef !60
  %31 = trunc i8 %30 to i1
  %32 = xor i1 %31, true
  %33 = load ptr, ptr %8, align 8, !tbaa !188
  %34 = zext i1 %32 to i8
  store i8 %34, ptr %33, align 1, !tbaa !67
  br label %35

35:                                               ; preds = %28, %25
  store i1 true, ptr %5, align 1
  br label %37

36:                                               ; preds = %20
  store i1 false, ptr %5, align 1
  br label %37

37:                                               ; preds = %36, %35
  %38 = load i1, ptr %5, align 1
  ret i1 %38
}