; Function Attrs: mustprogress uwtable
define dso_local noundef zeroext i1 @_ZN5ImGui8MenuItemEPKcS1_Pbb(ptr noundef %0, ptr noundef %1, ptr noundef captures(address_is_null) %2, i1 noundef zeroext %3) local_unnamed_addr #5 {
  %.not = icmp eq ptr %2, null
  br i1 %.not, label %.thread, label %6

.thread:                                          ; preds = %4
  %5 = tail call noundef zeroext i1 @_ZN5ImGui10MenuItemExEPKcS1_S1_bb(ptr noundef %0, ptr noundef null, ptr noundef %1, i1 noundef zeroext false, i1 noundef zeroext %3)
  br label %13

6:                                                ; preds = %4
  %7 = load i8, ptr %2, align 1, !tbaa !207, !range !152, !noundef !153
  %8 = trunc nuw i8 %7 to i1
  %9 = tail call noundef zeroext i1 @_ZN5ImGui10MenuItemExEPKcS1_S1_bb(ptr noundef %0, ptr noundef null, ptr noundef %1, i1 noundef zeroext %8, i1 noundef zeroext %3)
  br i1 %9, label %10, label %13

10:                                               ; preds = %6
  %11 = load i8, ptr %2, align 1, !tbaa !207, !range !152, !noundef !153
  %12 = xor i8 %11, 1
  store i8 %12, ptr %2, align 1, !tbaa !207
  br label %13

13:                                               ; preds = %.thread, %6, %10
  %14 = phi i1 [ %5, %.thread ], [ false, %6 ], [ true, %10 ]
  ret i1 %14
}